Certificate:
    Data:
        Version: 3 (0x2)
        Serial Number: 4096 (0x1000)
    Signature Algorithm: md5WithRSAEncryption
        Issuer: C=US, ST=UT, L=utah.edu, O=MSD, OU=MSD, CN=kirkCypher/emailAddress=kirk.hietpas@gmail.com
        Validity
            Not Before: Mar 22 17:29:54 2021 GMT
            Not After : Mar 22 17:29:54 2022 GMT
        Subject: C=US, ST=UT, O=MSD, OU=MSD, CN=Server Key/emailAddress=kirk.hietpas@gmail.com
        Subject Public Key Info:
            Public Key Algorithm: rsaEncryption
                Public-Key: (4096 bit)
                Modulus:
                    00:b3:03:45:7a:17:9a:b4:86:de:77:08:22:9e:ad:
                    a6:58:8e:3d:6f:fb:f5:d1:6f:d4:c4:3e:8b:ea:69:
                    fa:33:96:27:8e:b8:1b:05:e0:8f:e2:38:bb:94:5d:
                    02:67:f7:d5:91:c8:0f:95:5b:3f:24:a2:e6:7b:54:
                    ca:9a:aa:de:8c:0c:e5:a2:bf:09:9c:c6:9d:f9:77:
                    16:9f:6c:36:39:ce:29:fd:44:71:fb:ee:a1:2f:43:
                    a8:86:98:73:52:87:47:df:ac:49:63:05:bb:e9:b2:
                    87:ac:58:85:bf:70:cd:b4:3c:5f:af:02:56:c4:d9:
                    07:5d:5c:97:eb:57:fd:51:74:ad:da:8a:72:95:70:
                    7b:e9:a7:d4:5b:d4:00:34:ab:a0:16:eb:81:55:c9:
                    23:37:08:a7:5a:61:92:82:09:93:09:44:2a:6b:7a:
                    b6:2e:c4:75:fd:5e:80:c2:2a:27:9c:b2:d0:3c:25:
                    f0:96:25:16:00:02:da:c1:fd:b1:29:7e:6a:01:df:
                    61:08:c2:f0:fc:aa:51:bf:94:c4:5e:cb:82:5e:ff:
                    c8:47:46:ac:0c:1b:6b:fa:07:68:ec:e4:ec:a7:2a:
                    76:77:8c:02:ed:c6:59:5c:b0:8e:0f:83:4e:00:ad:
                    ad:06:c8:f6:5a:41:85:1a:4f:e9:10:d4:6f:8a:2c:
                    06:65:25:a6:3c:22:f8:e8:be:69:14:17:d1:42:7d:
                    da:c8:85:e1:9f:b6:23:02:40:6c:81:ca:23:d9:7c:
                    d8:b8:45:ce:b9:10:d9:0a:fd:57:96:aa:83:51:aa:
                    36:7f:a5:36:8f:4b:08:46:12:d4:88:51:b8:2b:57:
                    a7:0f:6d:1c:6c:1e:9b:b9:8d:87:48:84:db:38:5b:
                    ac:25:78:a8:ca:93:b4:69:30:f5:8b:2b:e9:cc:fc:
                    e3:77:23:75:65:aa:a2:03:ee:5b:c0:e9:dd:cb:d3:
                    60:a2:8a:0f:af:5b:a8:8e:f3:9e:b7:1d:6a:a8:32:
                    d0:1e:c5:fc:5f:57:f5:8f:1d:8f:30:cc:4e:31:d6:
                    a5:87:a0:0a:fe:27:77:78:47:8f:ab:b0:4f:64:a9:
                    79:45:b6:f5:0a:0d:38:6c:9b:da:20:99:5b:24:4a:
                    50:7b:5d:1f:be:0a:58:37:4b:c7:ad:dd:fe:8c:d5:
                    61:a4:20:38:fe:78:c2:6a:71:b6:43:f2:32:fc:b1:
                    dc:ce:db:95:6a:79:b3:8b:3b:35:dc:62:38:9f:b0:
                    f7:ff:0c:4d:57:6b:f6:94:5e:94:02:76:6f:03:1b:
                    cc:13:90:d7:f6:ad:ad:42:0f:1b:0b:9c:c7:cb:67:
                    ca:41:6a:f5:57:6c:a6:45:79:81:05:aa:86:24:22:
                    51:83:27
                Exponent: 65537 (0x10001)
        X509v3 extensions:
            X509v3 Basic Constraints: 
                CA:FALSE
            Netscape Comment: 
                OpenSSL Generated Certificate
            X509v3 Subject Key Identifier: 
                91:AE:F9:61:23:BE:D6:FC:97:4E:A1:76:0C:76:9E:57:3C:91:55:EA
            X509v3 Authority Key Identifier: 
                DirName:/C=US/ST=UT/L=utah.edu/O=MSD/OU=MSD/CN=kirkCypher/emailAddress=kirk.hietpas@gmail.com
                serial:BA:03:30:16:77:67:F2:C9

    Signature Algorithm: md5WithRSAEncryption
         24:ae:e4:59:5e:79:81:c1:c5:8e:54:dd:f3:8c:3a:a1:80:75:
         ad:8f:4b:5d:22:c8:94:c3:dd:fd:41:0b:74:cb:5f:00:d0:9f:
         ea:ed:96:12:c7:3f:92:45:d2:51:8d:59:ae:45:64:bd:f2:62:
         0a:1e:32:b0:b9:74:4e:56:79:84:8e:92:ba:2d:b4:df:f7:c4:
         76:43:19:02:05:42:53:5a:95:3d:a6:0b:d7:43:bf:63:5e:d2:
         83:33:b5:26:eb:d6:d2:d5:45:c2:ea:4d:19:ec:a5:ce:85:37:
         d3:65:c7:2e:1a:30:25:7f:c3:aa:3f:c8:9e:a8:8c:dc:c7:2e:
         f7:98:bf:89:ff:3d:d4:dd:87:ab:02:7c:1d:8e:6d:24:15:8e:
         f5:fe:7b:f1:9c:d3:ee:45:78:bc:b7:cc:31:d4:56:b3:7d:5e:
         80:b9:37:fa:32:b9:c8:13:13:a1:72:3e:9f:df:cd:48:51:a1:
         a5:82:31:3a:0f:93:40:e5:4e:70:cd:a4:be:ae:7c:f7:0c:72:
         2d:56:53:5a:ca:7d:21:40:0b:d7:f9:aa:06:8c:22:a9:e2:97:
         db:29:f0:bd:e4:51:a2:87:5f:bc:4d:05:34:10:31:00:8d:bd:
         37:f0:93:41:06:8e:b0:27:6f:50:9b:87:83:17:d2:f9:23:2d:
         96:7c:85:4c:e7:38:48:99:b3:00:f4:a4:84:2f:61:5f:ca:b7:
         ae:54:94:b8:36:7f:54:75:aa:b5:8e:7c:a0:38:25:8d:ef:7b:
         4c:98:cf:39:a1:48:93:65:1c:d4:13:52:db:3e:1f:03:0b:d0:
         27:1c:bc:eb:fc:ea:d2:45:f9:4c:24:07:4a:80:2f:e5:6d:d1:
         e4:03:18:b4:ac:7d:df:39:07:e8:11:c5:6d:7d:3b:4b:a9:8e:
         a2:35:68:19:ca:ce:3f:27:23:4e:9b:87:66:4b:08:cd:62:79:
         7f:0c:b4:8d:df:1e:a2:dc:50:f2:9b:fe:14:68:3f:08:27:f1:
         e4:e9:b6:01:da:9a:91:73:56:53:66:41:6e:ef:34:39:c7:09:
         54:a4:47:3a:6f:38:e0:1e:a6:be:d1:c7:cc:1c:b6:71:3d:9e:
         01:4b:c6:b1:27:cd:65:6c:1c:ca:17:87:5b:9a:93:c3:2b:81:
         c0:aa:17:e7:7d:f9:f1:e8:43:3c:c7:e4:69:0b:df:9a:51:f4:
         09:f1:4b:1c:25:65:44:4e:1d:11:a5:2c:19:08:9e:61:33:88:
         8a:aa:61:3a:6a:5a:68:50:c9:45:4c:3b:ea:57:36:92:1f:58:
         8a:5e:02:49:27:85:80:60:99:1d:a2:db:9f:c7:6c:93:a9:fe:
         ce:99:4d:5f:ae:62:c9:f2
-----BEGIN CERTIFICATE-----
MIIGeDCCBGCgAwIBAgICEAAwDQYJKoZIhvcNAQEEBQAwgYUxCzAJBgNVBAYTAlVT
MQswCQYDVQQIDAJVVDERMA8GA1UEBwwIdXRhaC5lZHUxDDAKBgNVBAoMA01TRDEM
MAoGA1UECwwDTVNEMRMwEQYDVQQDDApraXJrQ3lwaGVyMSUwIwYJKoZIhvcNAQkB
FhZraXJrLmhpZXRwYXNAZ21haWwuY29tMB4XDTIxMDMyMjE3Mjk1NFoXDTIyMDMy
MjE3Mjk1NFowcjELMAkGA1UEBhMCVVMxCzAJBgNVBAgMAlVUMQwwCgYDVQQKDANN
U0QxDDAKBgNVBAsMA01TRDETMBEGA1UEAwwKU2VydmVyIEtleTElMCMGCSqGSIb3
DQEJARYWa2lyay5oaWV0cGFzQGdtYWlsLmNvbTCCAiIwDQYJKoZIhvcNAQEBBQAD
ggIPADCCAgoCggIBALMDRXoXmrSG3ncIIp6tpliOPW/79dFv1MQ+i+pp+jOWJ464
GwXgj+I4u5RdAmf31ZHID5VbPySi5ntUypqq3owM5aK/CZzGnfl3Fp9sNjnOKf1E
cfvuoS9DqIaYc1KHR9+sSWMFu+myh6xYhb9wzbQ8X68CVsTZB11cl+tX/VF0rdqK
cpVwe+mn1FvUADSroBbrgVXJIzcIp1phkoIJkwlEKmt6ti7Edf1egMIqJ5yy0Dwl
8JYlFgAC2sH9sSl+agHfYQjC8PyqUb+UxF7Lgl7/yEdGrAwba/oHaOzk7KcqdneM
Au3GWVywjg+DTgCtrQbI9lpBhRpP6RDUb4osBmUlpjwi+Oi+aRQX0UJ92siF4Z+2
IwJAbIHKI9l82LhFzrkQ2Qr9V5aqg1GqNn+lNo9LCEYS1IhRuCtXpw9tHGwem7mN
h0iE2zhbrCV4qMqTtGkw9Ysr6cz843cjdWWqogPuW8Dp3cvTYKKKD69bqI7znrcd
aqgy0B7F/F9X9Y8djzDMTjHWpYegCv4nd3hHj6uwT2SpeUW29QoNOGyb2iCZWyRK
UHtdH74KWDdLx63d/ozVYaQgOP54wmpxtkPyMvyx3M7blWp5s4s7NdxiOJ+w9/8M
TVdr9pRelAJ2bwMbzBOQ1/atrUIPGwucx8tnykFq9VdspkV5gQWqhiQiUYMnAgMB
AAGjggECMIH/MAkGA1UdEwQCMAAwLAYJYIZIAYb4QgENBB8WHU9wZW5TU0wgR2Vu
ZXJhdGVkIENlcnRpZmljYXRlMB0GA1UdDgQWBBSRrvlhI77W/JdOoXYMdp5XPJFV
6jCBpAYDVR0jBIGcMIGZoYGLpIGIMIGFMQswCQYDVQQGEwJVUzELMAkGA1UECAwC
VVQxETAPBgNVBAcMCHV0YWguZWR1MQwwCgYDVQQKDANNU0QxDDAKBgNVBAsMA01T
RDETMBEGA1UEAwwKa2lya0N5cGhlcjElMCMGCSqGSIb3DQEJARYWa2lyay5oaWV0
cGFzQGdtYWlsLmNvbYIJALoDMBZ3Z/LJMA0GCSqGSIb3DQEBBAUAA4ICAQAkruRZ
XnmBwcWOVN3zjDqhgHWtj0tdIsiUw939QQt0y18A0J/q7ZYSxz+SRdJRjVmuRWS9
8mIKHjKwuXROVnmEjpK6LbTf98R2QxkCBUJTWpU9pgvXQ79jXtKDM7Um69bS1UXC
6k0Z7KXOhTfTZccuGjAlf8OqP8ieqIzcxy73mL+J/z3U3YerAnwdjm0kFY71/nvx
nNPuRXi8t8wx1FazfV6AuTf6MrnIExOhcj6f381IUaGlgjE6D5NA5U5wzaS+rnz3
DHItVlNayn0hQAvX+aoGjCKp4pfbKfC95FGih1+8TQU0EDEAjb038JNBBo6wJ29Q
m4eDF9L5Iy2WfIVM5zhImbMA9KSEL2FfyreuVJS4Nn9Udaq1jnygOCWN73tMmM85
oUiTZRzUE1LbPh8DC9AnHLzr/OrSRflMJAdKgC/lbdHkAxi0rH3fOQfoEcVtfTtL
qY6iNWgZys4/JyNOm4dmSwjNYnl/DLSN3x6i3FDym/4UaD8IJ/Hk6bYB2pqRc1ZT
ZkFu7zQ5xwlUpEc6bzjgHqa+0cfMHLZxPZ4BS8axJ81lbBzKF4dbmpPDK4HAqhfn
ffnx6EM8x+RpC9+aUfQJ8UscJWVETh0RpSwZCJ5hM4iKqmE6alpoUMlFTDvqVzaS
H1iKXgJJJ4WAYJkdotufx2yTqf7OmU1frmLJ8g==
-----END CERTIFICATE-----
