Certificate:
    Data:
        Version: 3 (0x2)
        Serial Number: 4097 (0x1001)
    Signature Algorithm: md5WithRSAEncryption
        Issuer: C=US, ST=UT, L=utah.edu, O=MSD, OU=MSD, CN=kirkCypher/emailAddress=kirk.hietpas@gmail.com
        Validity
            Not Before: Mar 22 17:31:33 2021 GMT
            Not After : Mar 22 17:31:33 2022 GMT
        Subject: C=US, ST=UT, O=MSD, OU=MSD, CN=client Key/emailAddress=kirk.hietpas@gmail.com
        Subject Public Key Info:
            Public Key Algorithm: rsaEncryption
                Public-Key: (4096 bit)
                Modulus:
                    00:ae:ac:55:89:ca:01:ee:02:fd:f7:04:8e:f7:ea:
                    75:33:77:36:e5:c1:5c:54:9a:2d:13:0c:e9:dc:5d:
                    9c:26:b9:38:37:ad:b3:c2:26:cc:a1:4e:5c:9f:d1:
                    12:76:b5:13:ed:20:64:45:12:ff:2b:06:54:cb:25:
                    9f:1c:77:8a:06:44:25:86:a5:39:62:f6:f0:80:97:
                    d4:ba:b3:c4:14:59:c7:83:1f:d7:48:fb:fd:81:c8:
                    a2:22:68:14:2e:42:bc:0e:5b:ac:92:87:5f:bb:5e:
                    ae:ef:31:91:f4:5b:7e:12:2a:e4:d1:36:d0:46:6e:
                    00:b0:08:f4:63:6b:c6:3c:03:7e:8c:d1:49:f0:21:
                    0c:27:3d:a2:2d:b6:de:11:8a:c6:ee:7e:dc:b6:cd:
                    64:e0:e8:a6:60:44:2b:c2:74:0d:3c:af:fc:bd:00:
                    7c:b7:16:31:1f:0c:0e:9d:ab:3c:ce:22:8d:43:ad:
                    3f:5d:b0:98:89:9a:bf:5c:12:7a:64:54:d0:39:4d:
                    a5:4b:13:67:6b:79:f9:d6:dc:ad:ff:81:33:83:df:
                    e9:7a:3d:58:84:33:09:fa:ae:bb:c1:34:b7:a6:62:
                    d6:0c:32:c9:8e:5c:3f:3b:ab:b1:8b:ec:9e:37:de:
                    a8:9c:ba:c0:08:04:b9:29:2c:e1:55:47:89:22:c7:
                    98:ef:f1:1e:2f:aa:94:d6:49:b2:c3:48:37:89:fe:
                    58:df:e3:ad:34:d8:97:25:b4:6d:2b:db:52:db:ac:
                    43:eb:d2:37:80:eb:75:14:32:c4:9e:48:d8:4a:e1:
                    e5:6c:97:f7:c5:19:22:f9:06:4d:71:92:ae:22:74:
                    63:22:0c:3c:cc:e8:d2:1c:c1:a2:57:ee:4e:29:49:
                    7c:7a:cc:6d:a2:5a:44:13:ac:37:a4:86:ef:c1:da:
                    df:95:55:32:40:5f:5b:cb:5e:8f:01:5a:3f:e0:81:
                    c3:6d:01:2e:ef:a0:ae:a8:6e:e6:69:ed:72:1f:1c:
                    7e:c1:41:47:6d:f6:d0:d1:20:51:1e:5d:7a:e3:64:
                    18:52:c4:42:2c:a1:6c:81:23:ee:cd:46:7d:5b:15:
                    c1:aa:29:0c:34:c0:a9:19:f6:88:e5:82:8a:8d:c9:
                    21:8b:8f:00:54:f0:1f:b7:12:71:e0:10:bf:9e:da:
                    c4:ec:eb:3c:30:6d:93:2f:8a:57:c5:68:f5:40:10:
                    af:d8:b9:80:e6:65:82:ea:6c:a4:d2:a3:ed:8f:33:
                    fe:b2:7e:a2:5a:c0:82:45:88:78:77:37:21:63:46:
                    7a:4a:58:3a:06:bf:ce:c8:b8:9b:72:86:2b:58:29:
                    ba:ee:12:02:75:2a:af:d3:6e:42:fe:f9:ee:72:8b:
                    6d:b9:e3
                Exponent: 65537 (0x10001)
        X509v3 extensions:
            X509v3 Basic Constraints: 
                CA:FALSE
            Netscape Comment: 
                OpenSSL Generated Certificate
            X509v3 Subject Key Identifier: 
                9C:E3:6A:46:78:C8:7A:95:D0:8D:86:09:72:D0:07:B4:E6:07:C9:30
            X509v3 Authority Key Identifier: 
                DirName:/C=US/ST=UT/L=utah.edu/O=MSD/OU=MSD/CN=kirkCypher/emailAddress=kirk.hietpas@gmail.com
                serial:BA:03:30:16:77:67:F2:C9

    Signature Algorithm: md5WithRSAEncryption
         54:59:6e:be:b0:0b:1e:13:68:e7:c8:89:2f:f1:b2:50:3c:2e:
         69:98:f8:56:5d:03:c0:07:b0:12:58:d8:f4:31:b8:68:77:2f:
         b5:1f:52:5f:4b:e0:d9:89:ef:07:b9:02:8c:a1:92:a8:a4:cb:
         6d:11:cf:b2:48:51:22:de:63:bc:78:a0:fc:d3:7c:cb:97:6c:
         3c:e0:29:0a:d0:b6:e0:11:0c:b9:02:7d:20:db:47:90:a2:ac:
         a1:6e:79:e6:91:05:64:13:84:c2:17:3d:a2:b3:ba:68:87:79:
         65:94:88:9c:f9:79:43:28:ca:08:81:6e:db:59:f1:48:d3:08:
         6c:70:72:ef:74:b2:f5:b0:e7:e4:70:54:0e:8c:31:c3:47:22:
         e1:1b:d4:ef:1a:c2:9e:53:a8:a1:c1:29:d4:e5:58:3e:d7:19:
         d2:52:b3:e8:57:7a:10:fe:35:28:9c:a3:a1:5b:c1:5d:3d:50:
         00:a5:15:29:fe:c5:e3:da:57:a8:3f:03:f0:f8:b4:94:89:e5:
         92:b1:fc:ec:17:69:bf:30:a6:8e:bc:89:20:a0:24:0f:66:c1:
         12:dc:66:37:6c:32:1a:33:15:b4:52:07:13:2a:b8:fa:b4:6c:
         92:a0:cb:f3:a0:ac:9a:ee:c8:b9:3c:72:51:34:11:4c:ad:38:
         36:d8:d7:70:74:64:7c:83:90:70:95:ce:20:35:36:8d:8f:af:
         cb:96:7c:48:f5:4e:29:8e:83:53:8d:c3:9c:ed:0a:04:dd:63:
         a0:7c:33:42:4d:35:1e:69:52:9d:1f:dd:5c:ce:7f:a0:5d:5d:
         79:4b:00:24:ee:f0:7d:fa:06:b1:7b:b9:5c:ce:f2:dc:1f:62:
         1f:50:f9:9b:00:1f:8a:e0:0e:1c:b8:6a:68:a3:28:d5:4e:c0:
         c1:84:00:30:88:d0:f5:65:0d:30:8f:a3:53:65:59:24:f7:90:
         ea:52:59:ac:ca:5e:d7:ba:60:38:b4:0b:bf:be:90:21:2c:94:
         9b:01:56:76:7c:ff:e6:ce:15:d5:f2:a9:62:61:ff:fa:a4:5a:
         b4:8d:cd:61:25:b1:9b:03:c7:52:44:b2:1b:9a:12:be:1b:b9:
         c8:d9:79:72:c9:cd:ac:2b:5e:2b:41:17:98:13:35:e5:3b:10:
         1e:e6:55:65:c0:e9:60:2e:47:9a:02:96:28:26:7e:19:bc:28:
         1b:b6:b8:4f:64:c3:38:9c:19:2f:93:87:9d:d5:32:fb:cf:6f:
         5f:92:38:da:a1:e9:a4:f1:b8:9a:2e:bc:2e:dc:37:e4:04:29:
         63:07:39:1d:86:aa:59:1c:13:98:0c:41:09:b6:de:14:a2:f6:
         7a:61:a0:eb:41:c7:56:2b
-----BEGIN CERTIFICATE-----
MIIGeDCCBGCgAwIBAgICEAEwDQYJKoZIhvcNAQEEBQAwgYUxCzAJBgNVBAYTAlVT
MQswCQYDVQQIDAJVVDERMA8GA1UEBwwIdXRhaC5lZHUxDDAKBgNVBAoMA01TRDEM
MAoGA1UECwwDTVNEMRMwEQYDVQQDDApraXJrQ3lwaGVyMSUwIwYJKoZIhvcNAQkB
FhZraXJrLmhpZXRwYXNAZ21haWwuY29tMB4XDTIxMDMyMjE3MzEzM1oXDTIyMDMy
MjE3MzEzM1owcjELMAkGA1UEBhMCVVMxCzAJBgNVBAgMAlVUMQwwCgYDVQQKDANN
U0QxDDAKBgNVBAsMA01TRDETMBEGA1UEAwwKY2xpZW50IEtleTElMCMGCSqGSIb3
DQEJARYWa2lyay5oaWV0cGFzQGdtYWlsLmNvbTCCAiIwDQYJKoZIhvcNAQEBBQAD
ggIPADCCAgoCggIBAK6sVYnKAe4C/fcEjvfqdTN3NuXBXFSaLRMM6dxdnCa5ODet
s8ImzKFOXJ/REna1E+0gZEUS/ysGVMslnxx3igZEJYalOWL28ICX1LqzxBRZx4Mf
10j7/YHIoiJoFC5CvA5brJKHX7teru8xkfRbfhIq5NE20EZuALAI9GNrxjwDfozR
SfAhDCc9oi223hGKxu5+3LbNZODopmBEK8J0DTyv/L0AfLcWMR8MDp2rPM4ijUOt
P12wmImav1wSemRU0DlNpUsTZ2t5+dbcrf+BM4Pf6Xo9WIQzCfquu8E0t6Zi1gwy
yY5cPzursYvsnjfeqJy6wAgEuSks4VVHiSLHmO/xHi+qlNZJssNIN4n+WN/jrTTY
lyW0bSvbUtusQ+vSN4DrdRQyxJ5I2Erh5WyX98UZIvkGTXGSriJ0YyIMPMzo0hzB
olfuTilJfHrMbaJaRBOsN6SG78Ha35VVMkBfW8tejwFaP+CBw20BLu+grqhu5mnt
ch8cfsFBR2320NEgUR5deuNkGFLEQiyhbIEj7s1GfVsVwaopDDTAqRn2iOWCio3J
IYuPAFTwH7cSceAQv57axOzrPDBtky+KV8Vo9UAQr9i5gOZlgupspNKj7Y8z/rJ+
olrAgkWIeHc3IWNGekpYOga/zsi4m3KGK1gpuu4SAnUqr9NuQv757nKLbbnjAgMB
AAGjggECMIH/MAkGA1UdEwQCMAAwLAYJYIZIAYb4QgENBB8WHU9wZW5TU0wgR2Vu
ZXJhdGVkIENlcnRpZmljYXRlMB0GA1UdDgQWBBSc42pGeMh6ldCNhgly0Ae05gfJ
MDCBpAYDVR0jBIGcMIGZoYGLpIGIMIGFMQswCQYDVQQGEwJVUzELMAkGA1UECAwC
VVQxETAPBgNVBAcMCHV0YWguZWR1MQwwCgYDVQQKDANNU0QxDDAKBgNVBAsMA01T
RDETMBEGA1UEAwwKa2lya0N5cGhlcjElMCMGCSqGSIb3DQEJARYWa2lyay5oaWV0
cGFzQGdtYWlsLmNvbYIJALoDMBZ3Z/LJMA0GCSqGSIb3DQEBBAUAA4ICAQBUWW6+
sAseE2jnyIkv8bJQPC5pmPhWXQPAB7ASWNj0Mbhody+1H1JfS+DZie8HuQKMoZKo
pMttEc+ySFEi3mO8eKD803zLl2w84CkK0LbgEQy5An0g20eQoqyhbnnmkQVkE4TC
Fz2is7poh3lllIic+XlDKMoIgW7bWfFI0whscHLvdLL1sOfkcFQOjDHDRyLhG9Tv
GsKeU6ihwSnU5Vg+1xnSUrPoV3oQ/jUonKOhW8FdPVAApRUp/sXj2leoPwPw+LSU
ieWSsfzsF2m/MKaOvIkgoCQPZsES3GY3bDIaMxW0UgcTKrj6tGySoMvzoKya7si5
PHJRNBFMrTg22NdwdGR8g5Bwlc4gNTaNj6/LlnxI9U4pjoNTjcOc7QoE3WOgfDNC
TTUeaVKdH91czn+gXV15SwAk7vB9+gaxe7lczvLcH2IfUPmbAB+K4A4cuGpooyjV
TsDBhAAwiND1ZQ0wj6NTZVkk95DqUlmsyl7XumA4tAu/vpAhLJSbAVZ2fP/mzhXV
8qliYf/6pFq0jc1hJbGbA8dSRLIbmhK+G7nI2Xlyyc2sK14rQReYEzXlOxAe5lVl
wOlgLkeaApYoJn4ZvCgbtrhPZMM4nBkvk4ed1TL7z29fkjjaoemk8biaLrwu3Dfk
BCljBzkdhqpZHBOYDEEJtt4UovZ6YaDrQcdWKw==
-----END CERTIFICATE-----
